; Function Attrs: mustprogress nofree norecurse nounwind willreturn memory(readwrite, inaccessiblemem: none) uwtable
define dso_local void @_ZN4base5debug14ScopedActivity12ChangeActionEh(ptr nocapture noundef nonnull readonly align 8 dereferenceable(12) %this, i8 noundef zeroext %action) local_unnamed_addr #6 align 2 personality ptr @__gxx_personality_v0 {
if.end:
  %0 = or i8 %action, -16
  %1 = load ptr, ptr %this, align 8
  %tobool.not.i1 = icmp eq ptr %1, null
  br i1 %tobool.not.i1, label %_ZN4base5debug21ThreadActivityTracker14ScopedActivity17ChangeTypeAndDataENS0_8Activity4TypeERKNS0_12ActivityDataE.exit, label %if.then.i

if.then.i:                                        ; preds = %if.end
  %header_.i.i = getelementptr inbounds i8, ptr %1, i64 8
  %2 = load ptr, ptr %header_.i.i, align 8
  %current_depth.i.i = getelementptr inbounds i8, ptr %2, i64 44
  %3 = load atomic i32, ptr %current_depth.i.i acquire, align 4
  %stack_slots_.i.i = getelementptr inbounds i8, ptr %1, i64 24
  %4 = load i32, ptr %stack_slots_.i.i, align 8
  %cmp.not.i.i = icmp ugt i32 %3, %4
  br i1 %cmp.not.i.i, label %_ZN4base5debug21ThreadActivityTracker14ScopedActivity17ChangeTypeAndDataENS0_8Activity4TypeERKNS0_12ActivityDataE.exit, label %if.then5.i.i

if.then5.i.i:                                     ; preds = %if.then.i
  %stack_.i.i = getelementptr inbounds i8, ptr %1, i64 16
  %5 = load ptr, ptr %stack_.i.i, align 8
  %sub.i.i = add i32 %3, -1
  %idxprom.i.i = zext i32 %sub.i.i to i64
  %activity_type.i.i = getelementptr inbounds %"struct.base::debug::Activity", ptr %5, i64 %idxprom.i.i, i32 3
  store i8 %0, ptr %activity_type.i.i, align 8
  br label %_ZN4base5debug21ThreadActivityTracker14ScopedActivity17ChangeTypeAndDataENS0_8Activity4TypeERKNS0_12ActivityDataE.exit

_ZN4base5debug21ThreadActivityTracker14ScopedActivity17ChangeTypeAndDataENS0_8Activity4TypeERKNS0_12ActivityDataE.exit: ; preds = %if.end, %if.then.i, %if.then5.i.i
  ret void
}